; Function Attrs: nounwind uwtable
define dso_local i64 @pg_read_binary_file_off_len(ptr noundef captures(none) %0) local_unnamed_addr #0 {
  %2 = getelementptr inbounds nuw i8, ptr %0, i64 32
  %3 = load i64, ptr %2, align 8
  %4 = inttoptr i64 %3 to ptr
  %5 = tail call ptr @pg_detoast_datum_packed(ptr noundef %4) #9
  %6 = getelementptr inbounds nuw i8, ptr %0, i64 64
  %7 = load i64, ptr %6, align 8
  %8 = icmp sgt i64 %7, -1
  br i1 %8, label %pg_read_binary_file_common.exit, label %9

9:                                                ; preds = %1
  %10 = tail call zeroext i1 @errstart_cold(i32 noundef 21, ptr noundef null) #10
  tail call void @llvm.assume(i1 %10)
  %11 = tail call i32 @errcode(i32 noundef 50856066) #9
  %12 = tail call i32 (ptr, ...) @errmsg(ptr noundef nonnull @.str.18) #9
  tail call void @errfinish(ptr noundef nonnull @.str.1, i32 noundef 269, ptr noundef nonnull @__func__.pg_read_binary_file_common) #9
  unreachable

pg_read_binary_file_common.exit:                  ; preds = %1
  %13 = getelementptr inbounds nuw i8, ptr %0, i64 48
  %14 = load i64, ptr %13, align 8
  %15 = tail call fastcc ptr @convert_and_check_filename(ptr noundef %5)
  %16 = tail call fastcc ptr @read_binary_file(ptr noundef %15, i64 noundef %14, i64 noundef %7, i1 noundef zeroext false)
  %.not = icmp eq ptr %16, null
  br i1 %.not, label %17, label %19

17:                                               ; preds = %pg_read_binary_file_common.exit
  %18 = getelementptr inbounds nuw i8, ptr %0, i64 28
  store i8 1, ptr %18, align 4
  br label %21

19:                                               ; preds = %pg_read_binary_file_common.exit
  %20 = ptrtoint ptr %16 to i64
  br label %21

21:                                               ; preds = %19, %17
  %.0 = phi i64 [ %20, %19 ], [ 0, %17 ]
  ret i64 %.0
}